; Function Attrs: mustprogress nofree norecurse nosync nounwind willreturn memory(argmem: read) uwtable
define hidden noundef zeroext i1 @_ZNK12old_interval13contains_zeroEv(ptr noundef nonnull readonly align 8 captures(none) dereferenceable(112) %0) local_unnamed_addr #9 align 2 {
  %2 = getelementptr inbounds nuw i8, ptr %0, i64 8
  %3 = load i32, ptr %2, align 8, !tbaa !3
  switch i32 %3, label %.thread [
    i32 0, label %_ZNK11ext_numeral6is_negEv.exit.thread
    i32 1, label %_ZNK11ext_numeral6is_negEv.exit
  ]

_ZNK11ext_numeral6is_negEv.exit:                  ; preds = %1
  %4 = getelementptr inbounds nuw i8, ptr %0, i64 16
  %5 = load i32, ptr %4, align 8, !tbaa !16
  %6 = icmp slt i32 %5, 0
  br i1 %6, label %_ZNK11ext_numeral6is_negEv.exit.thread, label %7

7:                                                ; preds = %_ZNK11ext_numeral6is_negEv.exit
  %8 = icmp eq i32 %5, 0
  br i1 %8, label %9, label %.thread

9:                                                ; preds = %7
  %10 = getelementptr inbounds nuw i8, ptr %0, i64 88
  %11 = load i8, ptr %10, align 8, !tbaa !32, !range !39, !noundef !40
  %12 = trunc nuw i8 %11 to i1
  br i1 %12, label %.thread, label %_ZNK11ext_numeral6is_negEv.exit.thread

_ZNK11ext_numeral6is_negEv.exit.thread:           ; preds = %1, %9, %_ZNK11ext_numeral6is_negEv.exit
  %13 = getelementptr inbounds nuw i8, ptr %0, i64 48
  %14 = load i32, ptr %13, align 8, !tbaa !3
  switch i32 %14, label %.thread [
    i32 0, label %_ZNK11ext_numeral6is_posEv.exit.thread.thread
    i32 1, label %_ZNK11ext_numeral6is_negEv.exit.i
  ]

_ZNK11ext_numeral6is_posEv.exit.thread.thread:    ; preds = %_ZNK11ext_numeral6is_negEv.exit.thread
  br label %.thread

_ZNK11ext_numeral6is_negEv.exit.i:                ; preds = %_ZNK11ext_numeral6is_negEv.exit.thread
  %15 = getelementptr inbounds nuw i8, ptr %0, i64 56
  %16 = load i32, ptr %15, align 8, !tbaa !16
  %or.cond = icmp sgt i32 %16, 0
  br i1 %or.cond, label %.thread, label %_ZNK11ext_numeral6is_posEv.exit.thread

_ZNK11ext_numeral6is_posEv.exit.thread:           ; preds = %_ZNK11ext_numeral6is_negEv.exit.i
  %17 = icmp eq i32 %16, 0
  br i1 %17, label %18, label %.thread

18:                                               ; preds = %_ZNK11ext_numeral6is_posEv.exit.thread
  %19 = getelementptr inbounds nuw i8, ptr %0, i64 89
  %20 = load i8, ptr %19, align 1, !tbaa !36, !range !39, !noundef !40
  %21 = trunc nuw i8 %20 to i1
  %22 = xor i1 %21, true
  br label %.thread

.thread:                                          ; preds = %_ZNK11ext_numeral6is_negEv.exit.i, %_ZNK11ext_numeral6is_posEv.exit.thread.thread, %_ZNK11ext_numeral6is_negEv.exit.thread, %1, %18, %_ZNK11ext_numeral6is_posEv.exit.thread, %9, %7
  %23 = phi i1 [ false, %9 ], [ false, %7 ], [ false, %_ZNK11ext_numeral6is_posEv.exit.thread ], [ %22, %18 ], [ false, %1 ], [ true, %_ZNK11ext_numeral6is_negEv.exit.thread ], [ false, %_ZNK11ext_numeral6is_posEv.exit.thread.thread ], [ true, %_ZNK11ext_numeral6is_negEv.exit.i ]
  ret i1 %23
}